; Function Attrs: mustprogress uwtable
define internal void @"_ZZN4pkpy5VoidP9_registerEPNS_2VMEPNS_8PyObjectES4_EN3$_28__invokeES2_S4_"(ptr dead_on_unwind noalias writable sret(%"struct.pkpy::Str") align 8 %0, ptr nocapture readnone %1, ptr nocapture noundef readonly %2) #3 align 2 personality ptr @__gxx_personality_v0 {
  %4 = alloca %"struct.pkpy::SStream", align 8
  %5 = alloca %"struct.pkpy::Str", align 8
  call void @llvm.lifetime.start.p0(i64 32, ptr nonnull %5)
  %6 = getelementptr inbounds i8, ptr %2, i64 24
  call void @llvm.lifetime.start.p0(i64 24, ptr nonnull %4), !noalias !12
  store i32 0, ptr %4, align 8, !noalias !15
  %7 = getelementptr inbounds i8, ptr %4, i64 4
  store i32 64, ptr %7, align 4, !noalias !15
  %8 = tail call noundef ptr @_ZN4pkpy12pool64_allocEm(i64 noundef 64) #24, !noalias !15
  %9 = getelementptr inbounds i8, ptr %4, i64 8
  store ptr %8, ptr %9, align 8, !noalias !15
  %10 = getelementptr inbounds i8, ptr %4, i64 16
  store i32 -1, ptr %10, align 8, !noalias !15
  %11 = load ptr, ptr %6, align 8, !noalias !15
  invoke void @_ZN4pkpy7SStream9write_hexEPv(ptr noundef nonnull align 8 dereferenceable(20) %4, ptr noundef %11)
          to label %12 unwind label %16, !noalias !15

12:                                               ; preds = %3
  invoke void @_ZN4pkpy7SStream3strEv(ptr dead_on_unwind nonnull writable sret(%"struct.pkpy::Str") align 8 %5, ptr noundef nonnull align 8 dereferenceable(20) %4)
          to label %13 unwind label %16, !noalias !12

13:                                               ; preds = %12
  %14 = load ptr, ptr %9, align 8, !noalias !15
  %.not.i.i.i.i = icmp eq ptr %14, null
  br i1 %.not.i.i.i.i, label %_ZNK4pkpy5VoidP3hexEv.exit.i, label %15

15:                                               ; preds = %13
  call void @_ZN4pkpy14pool64_deallocEPv(ptr noundef nonnull %14) #24, !noalias !12
  br label %_ZNK4pkpy5VoidP3hexEv.exit.i

16:                                               ; preds = %12, %3
  %17 = landingpad { ptr, i32 }
          cleanup
  %18 = load ptr, ptr %9, align 8, !noalias !15
  %.not.i.i2.i.i = icmp eq ptr %18, null
  br i1 %.not.i.i2.i.i, label %common.resume.i, label %19

19:                                               ; preds = %16
  call void @_ZN4pkpy14pool64_deallocEPv(ptr noundef nonnull %18) #24, !noalias !12
  br label %common.resume.i

common.resume.i:                                  ; preds = %20, %19, %16
  %common.resume.op.i = phi { ptr, i32 } [ %21, %20 ], [ %17, %19 ], [ %17, %16 ]
  resume { ptr, i32 } %common.resume.op.i

_ZNK4pkpy5VoidP3hexEv.exit.i:                     ; preds = %15, %13
  call void @llvm.lifetime.end.p0(i64 24, ptr nonnull %4), !noalias !12
  invoke void @_ZN4pkpy2_SIJRA11_KcNS_3StrERA2_S1_EEES4_DpOT_(ptr dead_on_unwind writable sret(%"struct.pkpy::Str") align 8 %0, ptr noundef nonnull align 1 dereferenceable(11) @.str.82, ptr noundef nonnull align 8 dereferenceable(32) %5, ptr noundef nonnull align 1 dereferenceable(2) @.str.83)
          to label %"_ZZN4pkpy5VoidP9_registerEPNS_2VMEPNS_8PyObjectES4_ENK3$_2clES2_S4_.exit" unwind label %20

20:                                               ; preds = %_ZNK4pkpy5VoidP3hexEv.exit.i
  %21 = landingpad { ptr, i32 }
          cleanup
  call void @_ZN4pkpy3StrD1Ev(ptr noundef nonnull align 8 dereferenceable(32) %5) #24
  br label %common.resume.i

"_ZZN4pkpy5VoidP9_registerEPNS_2VMEPNS_8PyObjectES4_ENK3$_2clES2_S4_.exit": ; preds = %_ZNK4pkpy5VoidP3hexEv.exit.i
  call void @_ZN4pkpy3StrD1Ev(ptr noundef nonnull align 8 dereferenceable(32) %5) #24
  call void @llvm.lifetime.end.p0(i64 32, ptr nonnull %5)
  ret void
}